target datalayout = "e-m:e-p270:32:32-p271:32:32-p272:64:64-i64:64-i128:128-f80:128-n8:16:32:64-S128"
target triple = "x86_64-pc-linux-gnu"

%struct.VuDev = type { i32, i32, ptr, ptr, %struct.VuDevInflightInfo, i32, %union.pthread_mutex_t, i32, i64, ptr, i64, i64, i8, i16, ptr, ptr, ptr, ptr, ptr, i32, i8 }
%struct.VuDevInflightInfo = type { i32, ptr, i64 }
%union.pthread_mutex_t = type { %struct.__pthread_mutex_s }
%struct.__pthread_mutex_s = type { i32, i32, i32, i32, i32, i16, i16, %struct.__pthread_internal_list }
%struct.__pthread_internal_list = type { ptr, ptr }
%struct.VhostUserMsg = type <{ i32, i32, i32, %union.anon, [8 x i32], i32, ptr }>
%union.anon = type { %struct.VhostUserMemory, [8 x i8] }
%struct.VhostUserMemory = type { i32, i32, [8 x %struct.VhostUserMemoryRegion] }
%struct.VhostUserMemoryRegion = type { i64, i64, i64, i64 }

@.str.77 = private unnamed_addr constant [24 x i8] c"Invalid queue index: %u\00", align 1
@.str.78 = private unnamed_addr constant [27 x i8] c"Invalid fds in request: %d\00", align 1

; Function Attrs: nounwind uwtable
define internal void @vmsg_close_fds(ptr noundef %0) #0 {
  %2 = alloca ptr, align 8
  %3 = alloca i32, align 4
  store ptr %0, ptr %2, align 8
  call void @llvm.lifetime.start.p0(i64 4, ptr %3) #13
  store i32 0, ptr %3, align 4, !annotation !4
  store i32 0, ptr %3, align 4
  br label %4

4:                                                ; preds = %18, %1
  %5 = load i32, ptr %3, align 4
  %6 = load ptr, ptr %2, align 8
  %7 = getelementptr inbounds nuw %struct.VhostUserMsg, ptr %6, i32 0, i32 5
  %8 = load i32, ptr %7, align 1
  %9 = icmp slt i32 %5, %8
  br i1 %9, label %10, label %21

10:                                               ; preds = %4
  %11 = load ptr, ptr %2, align 8
  %12 = getelementptr inbounds nuw %struct.VhostUserMsg, ptr %11, i32 0, i32 4
  %13 = load i32, ptr %3, align 4
  %14 = sext i32 %13 to i64
  %15 = getelementptr inbounds [8 x i32], ptr %12, i64 0, i64 %14
  %16 = load i32, ptr %15, align 1
  %17 = call i32 @close(i32 noundef %16)
  br label %18

18:                                               ; preds = %10
  %19 = load i32, ptr %3, align 4
  %20 = add i32 %19, 1
  store i32 %20, ptr %3, align 4
  br label %4

21:                                               ; preds = %4
  call void @llvm.lifetime.end.p0(i64 4, ptr %3) #13
  ret void
}

; Function Attrs: nounwind uwtable
define internal zeroext i1 @vu_check_queue_msg_file(ptr noundef %0, ptr noundef %1) #0 {
  %3 = alloca i1, align 1
  %4 = alloca ptr, align 8
  %5 = alloca ptr, align 8
  %6 = alloca i32, align 4
  %7 = alloca i8, align 1
  %8 = alloca i32, align 4
  store ptr %0, ptr %4, align 8
  store ptr %1, ptr %5, align 8
  call void @llvm.lifetime.start.p0(i64 4, ptr %6) #13
  %9 = load ptr, ptr %5, align 8
  %10 = getelementptr inbounds nuw %struct.VhostUserMsg, ptr %9, i32 0, i32 3
  %11 = load i64, ptr %10, align 1
  %12 = and i64 %11, 255
  %13 = trunc i64 %12 to i32
  store i32 %13, ptr %6, align 4
  call void @llvm.lifetime.start.p0(i64 1, ptr %7) #13
  %14 = load ptr, ptr %5, align 8
  %15 = getelementptr inbounds nuw %struct.VhostUserMsg, ptr %14, i32 0, i32 3
  %16 = load i64, ptr %15, align 1
  %17 = and i64 %16, 256
  %18 = icmp ne i64 %17, 0
  %19 = zext i1 %18 to i8
  store i8 %19, ptr %7, align 1
  %20 = load i32, ptr %6, align 4
  %21 = load ptr, ptr %4, align 8
  %22 = getelementptr inbounds nuw %struct.VuDev, ptr %21, i32 0, i32 13
  %23 = load i16, ptr %22, align 2
  %24 = zext i16 %23 to i32
  %25 = icmp sge i32 %20, %24
  br i1 %25, label %26, label %30

26:                                               ; preds = %2
  %27 = load ptr, ptr %5, align 8
  call void @vmsg_close_fds(ptr noundef %27)
  %28 = load ptr, ptr %4, align 8
  %29 = load i32, ptr %6, align 4
  call void (ptr, ptr, ...) @vu_panic(ptr noundef %28, ptr noundef @.str.77, i32 noundef %29)
  store i1 false, ptr %3, align 1
  store i32 1, ptr %8, align 4
  br label %47

30:                                               ; preds = %2
  %31 = load i8, ptr %7, align 1, !range !5, !noundef !6
  %32 = trunc i8 %31 to i1
  br i1 %32, label %33, label %35

33:                                               ; preds = %30
  %34 = load ptr, ptr %5, align 8
  call void @vmsg_close_fds(ptr noundef %34)
  store i1 true, ptr %3, align 1
  store i32 1, ptr %8, align 4
  br label %47

35:                                               ; preds = %30
  %36 = load ptr, ptr %5, align 8
  %37 = getelementptr inbounds nuw %struct.VhostUserMsg, ptr %36, i32 0, i32 5
  %38 = load i32, ptr %37, align 1
  %39 = icmp ne i32 %38, 1
  br i1 %39, label %40, label %46

40:                                               ; preds = %35
  %41 = load ptr, ptr %5, align 8
  call void @vmsg_close_fds(ptr noundef %41)
  %42 = load ptr, ptr %4, align 8
  %43 = load ptr, ptr %5, align 8
  %44 = getelementptr inbounds nuw %struct.VhostUserMsg, ptr %43, i32 0, i32 0
  %45 = load i32, ptr %44, align 1
  call void (ptr, ptr, ...) @vu_panic(ptr noundef %42, ptr noundef @.str.78, i32 noundef %45)
  store i1 false, ptr %3, align 1
  store i32 1, ptr %8, align 4
  br label %47

46:                                               ; preds = %35
  store i1 true, ptr %3, align 1
  store i32 1, ptr %8, align 4
  br label %47

47:                                               ; preds = %46, %40, %33, %26
  call void @llvm.lifetime.end.p0(i64 1, ptr %7) #13
  call void @llvm.lifetime.end.p0(i64 4, ptr %6) #13
  %48 = load i1, ptr %3, align 1
  ret i1 %48
}