; Function Attrs: nounwind uwtable
define internal fastcc noundef zeroext i1 @vu_check_queue_msg_file(ptr noundef %0, ptr noundef nonnull readonly captures(none) %1) unnamed_addr #3 {
  %3 = getelementptr inbounds nuw i8, ptr %1, i64 12
  %4 = load i64, ptr %3, align 1
  %5 = trunc i64 %4 to i32
  %6 = and i32 %5, 255
  %7 = getelementptr inbounds nuw i8, ptr %0, i64 138
  %8 = load i16, ptr %7, align 2
  %9 = zext i16 %8 to i32
  %.not14 = icmp samesign ult i32 %6, %9
  br i1 %.not14, label %22, label %10

10:                                               ; preds = %2
  %11 = getelementptr inbounds nuw i8, ptr %1, i64 316
  %12 = load i32, ptr %11, align 1
  %13 = icmp sgt i32 %12, 0
  br i1 %13, label %.lr.ph.i, label %vmsg_close_fds.exit

.lr.ph.i:                                         ; preds = %10
  %14 = getelementptr inbounds nuw i8, ptr %1, i64 284
  br label %15

15:                                               ; preds = %15, %.lr.ph.i
  %indvars.iv.i = phi i64 [ 0, %.lr.ph.i ], [ %indvars.iv.next.i, %15 ]
  %16 = getelementptr inbounds nuw [8 x i32], ptr %14, i64 0, i64 %indvars.iv.i
  %17 = load i32, ptr %16, align 1
  %18 = tail call i32 @close(i32 noundef %17) #21
  %indvars.iv.next.i = add nuw nsw i64 %indvars.iv.i, 1
  %19 = load i32, ptr %11, align 1
  %20 = sext i32 %19 to i64
  %21 = icmp slt i64 %indvars.iv.next.i, %20
  br i1 %21, label %15, label %vmsg_close_fds.exit

vmsg_close_fds.exit:                              ; preds = %15, %10
  tail call void (ptr, ptr, ...) @vu_panic(ptr noundef %0, ptr noundef nonnull @.str.77, i32 noundef %6)
  br label %vmsg_close_fds.exit19

22:                                               ; preds = %2
  %23 = and i64 %4, 256
  %.not = icmp eq i64 %23, 0
  %24 = getelementptr inbounds nuw i8, ptr %1, i64 316
  %25 = load i32, ptr %24, align 1
  br i1 %.not, label %36, label %26

26:                                               ; preds = %22
  %27 = icmp sgt i32 %25, 0
  br i1 %27, label %.lr.ph.i16, label %vmsg_close_fds.exit19

.lr.ph.i16:                                       ; preds = %26
  %28 = getelementptr inbounds nuw i8, ptr %1, i64 284
  br label %29

29:                                               ; preds = %29, %.lr.ph.i16
  %indvars.iv.i17 = phi i64 [ 0, %.lr.ph.i16 ], [ %indvars.iv.next.i18, %29 ]
  %30 = getelementptr inbounds nuw [8 x i32], ptr %28, i64 0, i64 %indvars.iv.i17
  %31 = load i32, ptr %30, align 1
  %32 = tail call i32 @close(i32 noundef %31) #21
  %indvars.iv.next.i18 = add nuw nsw i64 %indvars.iv.i17, 1
  %33 = load i32, ptr %24, align 1
  %34 = sext i32 %33 to i64
  %35 = icmp slt i64 %indvars.iv.next.i18, %34
  br i1 %35, label %29, label %vmsg_close_fds.exit19

36:                                               ; preds = %22
  %.not15 = icmp eq i32 %25, 1
  br i1 %.not15, label %vmsg_close_fds.exit19, label %37

37:                                               ; preds = %36
  %38 = icmp sgt i32 %25, 0
  br i1 %38, label %.lr.ph.i20, label %vmsg_close_fds.exit23

.lr.ph.i20:                                       ; preds = %37
  %39 = getelementptr inbounds nuw i8, ptr %1, i64 284
  br label %40

40:                                               ; preds = %40, %.lr.ph.i20
  %indvars.iv.i21 = phi i64 [ 0, %.lr.ph.i20 ], [ %indvars.iv.next.i22, %40 ]
  %41 = getelementptr inbounds nuw [8 x i32], ptr %39, i64 0, i64 %indvars.iv.i21
  %42 = load i32, ptr %41, align 1
  %43 = tail call i32 @close(i32 noundef %42) #21
  %indvars.iv.next.i22 = add nuw nsw i64 %indvars.iv.i21, 1
  %44 = load i32, ptr %24, align 1
  %45 = sext i32 %44 to i64
  %46 = icmp slt i64 %indvars.iv.next.i22, %45
  br i1 %46, label %40, label %vmsg_close_fds.exit23

vmsg_close_fds.exit23:                            ; preds = %40, %37
  %47 = load i32, ptr %1, align 1
  tail call void (ptr, ptr, ...) @vu_panic(ptr noundef %0, ptr noundef nonnull @.str.78, i32 noundef %47)
  br label %vmsg_close_fds.exit19

vmsg_close_fds.exit19:                            ; preds = %29, %26, %36, %vmsg_close_fds.exit23, %vmsg_close_fds.exit
  %.0 = phi i1 [ false, %vmsg_close_fds.exit ], [ false, %vmsg_close_fds.exit23 ], [ true, %36 ], [ true, %26 ], [ true, %29 ]
  ret i1 %.0
}